; Function Attrs: null_pointer_is_valid sspstrong uwtable
define internal void @ipfix_delete_callback(i32 noundef %0, ptr readnone captures(none) %1) #0 {
  %.not = icmp eq i32 %0, 0
  br i1 %.not, label %6, label %3

3:                                                ; preds = %2
  %4 = load ptr, ptr @netflow_handle, align 8
  tail call void @dissector_delete_uint(ptr noundef nonnull @.str.3343, i32 noundef %0, ptr noundef %4)
  %5 = load ptr, ptr @netflow_handle, align 8
  tail call void @dissector_delete_uint(ptr noundef nonnull @.str.4708, i32 noundef %0, ptr noundef %5)
  br label %6

6:                                                ; preds = %3, %2
  ret void
}